target datalayout = "e-m:e-p270:32:32-p271:32:32-p272:64:64-i64:64-i128:128-f80:128-n8:16:32:64-S128"
target triple = "x86_64-pc-linux-gnu"

%struct.darktable_t = type { %struct.dt_codepath_t, i32, i32, ptr, ptr, ptr, ptr, ptr, ptr, ptr, ptr, ptr, ptr, ptr, ptr, ptr, ptr, ptr, ptr, ptr, ptr, ptr, ptr, ptr, ptr, ptr, ptr, ptr, ptr, ptr, [64 x %struct.dt_pthread_mutex_t], %struct.dt_pthread_mutex_t, %struct.dt_pthread_mutex_t, %struct.dt_pthread_mutex_t, %struct.dt_pthread_mutex_t, %struct.dt_pthread_mutex_t, ptr, ptr, ptr, ptr, ptr, ptr, ptr, ptr, ptr, ptr, ptr, ptr, ptr, %struct.dt_lua_state_t, ptr, double, ptr, i32, [47 x i32], i32, i32, ptr, ptr, %struct.dt_sys_resources_t, %struct.dt_backthumb_t, %struct.dt_gimp_t }
%struct.dt_codepath_t = type { i8, [3 x i8] }
%struct.dt_pthread_mutex_t = type { %union.pthread_mutex_t }
%union.pthread_mutex_t = type { %struct.__pthread_mutex_s }
%struct.__pthread_mutex_s = type { i32, i32, i32, i32, i32, i16, i16, %struct.__pthread_internal_list }
%struct.__pthread_internal_list = type { ptr, ptr }
%struct.dt_lua_state_t = type { i32 }
%struct.dt_sys_resources_t = type { i64, i64, ptr, ptr, i32 }
%struct.dt_backthumb_t = type { double, double, i32, i32, i32, i32 }
%struct.dt_gimp_t = type { i32, ptr, ptr, i32, i32 }
%struct.dt_datetime_t = type { i32, i32, i32, i32, i32, i32, i32 }
%struct.dt_image_t = type { i32, i32, float, float, float, float, float, float, float, [64 x i8], [64 x i8], [128 x i8], [64 x i8], [64 x i8], [64 x i8], [64 x i8], i64, i32, %union.dt_image_correction_data_t, [64 x i8], [64 x i8], [64 x i8], [128 x i8], i32, [256 x i8], i32, i32, i32, i32, i32, i32, i32, i32, i32, i32, float, i32, i32, i32, i32, i32, i32, i64, i64, i64, i64, i32, [12 x i8], %struct.dt_iop_buffer_dsc_t, [9 x float], ptr, i32, i32, %struct.dt_image_raw_parameters_t, %struct.dt_image_geoloc_t, %struct._color_harmony_t, i16, [4 x i16], i32, i32, float, float, [4 x float], [4 x [3 x float]], [4 x float], ptr, ptr, i32, i32, [8 x i8] }
%union.dt_image_correction_data_t = type { %struct.anon.0 }
%struct.anon.0 = type { i32, float, [11 x float], [11 x float], [11 x float], [11 x float], [11 x float] }
%struct.dt_iop_buffer_dsc_t = type { i32, i32, i32, [6 x [6 x i8]], %struct.anon.3, [12 x i8], %struct.anon.4, [4 x float], i32, [12 x i8] }
%struct.anon.3 = type { i16, i16 }
%struct.anon.4 = type { i32, [12 x i8], [4 x float] }
%struct.dt_image_raw_parameters_t = type { i32 }
%struct.dt_image_geoloc_t = type { double, double, double }
%struct._color_harmony_t = type { i32, i32, i32 }

@darktable = external global %struct.darktable_t, align 8

; Function Attrs: nounwind uwtable
define i32 @_datetime_gdatetime_to_numbers(ptr noundef %0, ptr noundef %1) #0 {
  %3 = alloca i32, align 4
  %4 = alloca ptr, align 8
  %5 = alloca ptr, align 8
  store ptr %0, ptr %4, align 8, !tbaa !49
  store ptr %1, ptr %5, align 8, !tbaa !51
  %6 = load ptr, ptr %5, align 8, !tbaa !51
  %7 = icmp ne ptr %6, null
  br i1 %7, label %8, label %40

8:                                                ; preds = %2
  %9 = load ptr, ptr %5, align 8, !tbaa !51
  %10 = call i32 @g_date_time_get_year(ptr noundef %9)
  %11 = load ptr, ptr %4, align 8, !tbaa !49
  %12 = getelementptr inbounds nuw %struct.dt_datetime_t, ptr %11, i32 0, i32 0
  store i32 %10, ptr %12, align 4, !tbaa !52
  %13 = load ptr, ptr %5, align 8, !tbaa !51
  %14 = call i32 @g_date_time_get_month(ptr noundef %13)
  %15 = load ptr, ptr %4, align 8, !tbaa !49
  %16 = getelementptr inbounds nuw %struct.dt_datetime_t, ptr %15, i32 0, i32 1
  store i32 %14, ptr %16, align 4, !tbaa !54
  %17 = load ptr, ptr %5, align 8, !tbaa !51
  %18 = call i32 @g_date_time_get_day_of_month(ptr noundef %17)
  %19 = load ptr, ptr %4, align 8, !tbaa !49
  %20 = getelementptr inbounds nuw %struct.dt_datetime_t, ptr %19, i32 0, i32 2
  store i32 %18, ptr %20, align 4, !tbaa !55
  %21 = load ptr, ptr %5, align 8, !tbaa !51
  %22 = call i32 @g_date_time_get_hour(ptr noundef %21)
  %23 = load ptr, ptr %4, align 8, !tbaa !49
  %24 = getelementptr inbounds nuw %struct.dt_datetime_t, ptr %23, i32 0, i32 3
  store i32 %22, ptr %24, align 4, !tbaa !56
  %25 = load ptr, ptr %5, align 8, !tbaa !51
  %26 = call i32 @g_date_time_get_minute(ptr noundef %25)
  %27 = load ptr, ptr %4, align 8, !tbaa !49
  %28 = getelementptr inbounds nuw %struct.dt_datetime_t, ptr %27, i32 0, i32 4
  store i32 %26, ptr %28, align 4, !tbaa !57
  %29 = load ptr, ptr %5, align 8, !tbaa !51
  %30 = call i32 @g_date_time_get_second(ptr noundef %29)
  %31 = load ptr, ptr %4, align 8, !tbaa !49
  %32 = getelementptr inbounds nuw %struct.dt_datetime_t, ptr %31, i32 0, i32 5
  store i32 %30, ptr %32, align 4, !tbaa !58
  %33 = load ptr, ptr %5, align 8, !tbaa !51
  %34 = call i32 @g_date_time_get_microsecond(ptr noundef %33)
  %35 = sitofp i32 %34 to double
  %36 = fmul reassoc nsz arcp contract afn double %35, 1.000000e-03
  %37 = fptosi double %36 to i32
  %38 = load ptr, ptr %4, align 8, !tbaa !49
  %39 = getelementptr inbounds nuw %struct.dt_datetime_t, ptr %38, i32 0, i32 6
  store i32 %37, ptr %39, align 4, !tbaa !59
  store i32 1, ptr %3, align 4
  br label %41

40:                                               ; preds = %2
  store i32 0, ptr %3, align 4
  br label %41

41:                                               ; preds = %40, %8
  %42 = load i32, ptr %3, align 4
  ret i32 %42
}

; Function Attrs: nounwind uwtable
define ptr @dt_datetime_img_to_gdatetime(ptr noundef %0, ptr noundef %1) #0 {
  %3 = alloca ptr, align 8
  %4 = alloca ptr, align 8
  %5 = alloca ptr, align 8
  %6 = alloca ptr, align 8
  %7 = alloca %struct.dt_datetime_t, align 4
  %8 = alloca i32, align 4
  store ptr %0, ptr %4, align 8, !tbaa !68
  store ptr %1, ptr %5, align 8, !tbaa !83
  %9 = load ptr, ptr %5, align 8, !tbaa !83
  %10 = icmp ne ptr %9, null
  br i1 %10, label %12, label %11

11:                                               ; preds = %2
  store ptr null, ptr %3, align 8
  br label %48

12:                                               ; preds = %2
  call void @llvm.lifetime.start.p0(i64 8, ptr %6) #7
  %13 = load ptr, ptr getelementptr inbounds nuw (%struct.darktable_t, ptr @darktable, i32 0, i32 58), align 8, !tbaa !48
  %14 = load ptr, ptr %4, align 8, !tbaa !68
  %15 = getelementptr inbounds nuw %struct.dt_image_t, ptr %14, i32 0, i32 16
  %16 = load i64, ptr %15, align 8, !tbaa !70
  %17 = call ptr @g_date_time_add(ptr noundef %13, i64 noundef %16)
  store ptr %17, ptr %6, align 8, !tbaa !51
  %18 = load ptr, ptr %6, align 8, !tbaa !51
  %19 = icmp ne ptr %18, null
  br i1 %19, label %20, label %46

20:                                               ; preds = %12
  call void @llvm.lifetime.start.p0(i64 28, ptr %7) #7
  %21 = load ptr, ptr %6, align 8, !tbaa !51
  %22 = call i32 @_datetime_gdatetime_to_numbers(ptr noundef %7, ptr noundef %21)
  %23 = icmp ne i32 %22, 0
  br i1 %23, label %24, label %42

24:                                               ; preds = %20
  %25 = load ptr, ptr %6, align 8, !tbaa !51
  call void @g_date_time_unref(ptr noundef %25)
  %26 = load ptr, ptr %5, align 8, !tbaa !83
  %27 = getelementptr inbounds nuw %struct.dt_datetime_t, ptr %7, i32 0, i32 0
  %28 = load i32, ptr %27, align 4, !tbaa !52
  %29 = getelementptr inbounds nuw %struct.dt_datetime_t, ptr %7, i32 0, i32 1
  %30 = load i32, ptr %29, align 4, !tbaa !54
  %31 = getelementptr inbounds nuw %struct.dt_datetime_t, ptr %7, i32 0, i32 2
  %32 = load i32, ptr %31, align 4, !tbaa !55
  %33 = getelementptr inbounds nuw %struct.dt_datetime_t, ptr %7, i32 0, i32 3
  %34 = load i32, ptr %33, align 4, !tbaa !56
  %35 = getelementptr inbounds nuw %struct.dt_datetime_t, ptr %7, i32 0, i32 4
  %36 = load i32, ptr %35, align 4, !tbaa !57
  %37 = getelementptr inbounds nuw %struct.dt_datetime_t, ptr %7, i32 0, i32 5
  %38 = load i32, ptr %37, align 4, !tbaa !58
  %39 = sitofp i32 %38 to double
  %40 = call ptr @g_date_time_new(ptr noundef %26, i32 noundef %28, i32 noundef %30, i32 noundef %32, i32 noundef %34, i32 noundef %36, double noundef %39)
  store ptr %40, ptr %6, align 8, !tbaa !51
  %41 = load ptr, ptr %6, align 8, !tbaa !51
  store ptr %41, ptr %3, align 8
  store i32 1, ptr %8, align 4
  br label %43

42:                                               ; preds = %20
  store i32 0, ptr %8, align 4
  br label %43

43:                                               ; preds = %42, %24
  call void @llvm.lifetime.end.p0(i64 28, ptr %7) #7
  %44 = load i32, ptr %8, align 4
  switch i32 %44, label %47 [
    i32 0, label %45
  ]

45:                                               ; preds = %43
  br label %46

46:                                               ; preds = %45, %12
  store ptr null, ptr %3, align 8
  store i32 1, ptr %8, align 4
  br label %47

47:                                               ; preds = %46, %43
  call void @llvm.lifetime.end.p0(i64 8, ptr %6) #7
  br label %48

48:                                               ; preds = %47, %11
  %49 = load ptr, ptr %3, align 8
  ret ptr %49
}