; Function Attrs: nounwind uwtable
define ptr @dt_datetime_img_to_gdatetime(ptr noundef readonly captures(none) %0, ptr noundef %1) local_unnamed_addr #0 {
  %.not = icmp eq ptr %1, null
  br i1 %.not, label %18, label %3

3:                                                ; preds = %2
  %4 = load ptr, ptr getelementptr inbounds nuw (i8, ptr @darktable, i64 3336), align 8, !tbaa !48
  %5 = getelementptr inbounds nuw i8, ptr %0, i64 552
  %6 = load i64, ptr %5, align 8, !tbaa !60
  %7 = tail call ptr @g_date_time_add(ptr noundef %4, i64 noundef %6) #7
  %.not11 = icmp eq ptr %7, null
  br i1 %.not11, label %18, label %8

8:                                                ; preds = %3
  %9 = tail call i32 @g_date_time_get_year(ptr noundef nonnull %7) #7
  %10 = tail call i32 @g_date_time_get_month(ptr noundef nonnull %7) #7
  %11 = tail call i32 @g_date_time_get_day_of_month(ptr noundef nonnull %7) #7
  %12 = tail call i32 @g_date_time_get_hour(ptr noundef nonnull %7) #7
  %13 = tail call i32 @g_date_time_get_minute(ptr noundef nonnull %7) #7
  %14 = tail call i32 @g_date_time_get_second(ptr noundef nonnull %7) #7
  %15 = tail call i32 @g_date_time_get_microsecond(ptr noundef nonnull %7) #7
  tail call void @g_date_time_unref(ptr noundef nonnull %7) #7
  %16 = sitofp i32 %14 to double
  %17 = tail call ptr @g_date_time_new(ptr noundef nonnull %1, i32 noundef %9, i32 noundef %10, i32 noundef %11, i32 noundef %12, i32 noundef %13, double noundef %16) #7
  br label %18

18:                                               ; preds = %3, %8, %2
  %.08 = phi ptr [ null, %2 ], [ %17, %8 ], [ null, %3 ]
  ret ptr %.08
}